target datalayout = "e-m:e-p270:32:32-p271:32:32-p272:64:64-i64:64-i128:128-f80:128-n8:16:32:64-S128"
target triple = "x86_64-pc-linux-gnu"

%struct.ml_kem_gen_ctx_st = type { ptr, ptr, i32, i32, [64 x i8], ptr }

@.str.9 = private unnamed_addr constant [60 x i8] c"../openssl/providers/implementations/keymgmt/ml_kem_kmgmt.c\00", align 1

; Function Attrs: nounwind uwtable
define internal void @ml_kem_gen_cleanup(ptr noundef %0) #0 {
  %2 = alloca ptr, align 8
  %3 = alloca ptr, align 8
  store ptr %0, ptr %2, align 8, !tbaa !3
  call void @llvm.lifetime.start.p0(i64 8, ptr %3) #7
  %4 = load ptr, ptr %2, align 8, !tbaa !3
  store ptr %4, ptr %3, align 8, !tbaa !38
  %5 = load ptr, ptr %3, align 8, !tbaa !38
  %6 = getelementptr inbounds nuw %struct.ml_kem_gen_ctx_st, ptr %5, i32 0, i32 5
  %7 = load ptr, ptr %6, align 8, !tbaa !43
  %8 = icmp ne ptr %7, null
  br i1 %8, label %9, label %13

9:                                                ; preds = %1
  %10 = load ptr, ptr %3, align 8, !tbaa !38
  %11 = getelementptr inbounds nuw %struct.ml_kem_gen_ctx_st, ptr %10, i32 0, i32 5
  %12 = load ptr, ptr %11, align 8, !tbaa !43
  call void @OPENSSL_cleanse(ptr noundef %12, i64 noundef 32)
  br label %13

13:                                               ; preds = %9, %1
  %14 = load ptr, ptr %3, align 8, !tbaa !38
  %15 = getelementptr inbounds nuw %struct.ml_kem_gen_ctx_st, ptr %14, i32 0, i32 1
  %16 = load ptr, ptr %15, align 8, !tbaa !40
  call void @CRYPTO_free(ptr noundef %16, ptr noundef @.str.9, i32 noundef 738)
  %17 = load ptr, ptr %3, align 8, !tbaa !38
  call void @CRYPTO_free(ptr noundef %17, ptr noundef @.str.9, i32 noundef 739)
  call void @llvm.lifetime.end.p0(i64 8, ptr %3) #7
  ret void
}