; Function Attrs: nounwind uwtable
define internal void @ml_kem_gen_cleanup(ptr noundef %0) #0 {
  %2 = getelementptr inbounds nuw i8, ptr %0, i64 88
  %3 = load ptr, ptr %2, align 8, !tbaa !40
  %.not = icmp eq ptr %3, null
  br i1 %.not, label %5, label %4

4:                                                ; preds = %1
  tail call void @OPENSSL_cleanse(ptr noundef nonnull %3, i64 noundef 32) #7
  br label %5

5:                                                ; preds = %4, %1
  %6 = getelementptr inbounds nuw i8, ptr %0, i64 8
  %7 = load ptr, ptr %6, align 8, !tbaa !37
  tail call void @CRYPTO_free(ptr noundef %7, ptr noundef nonnull @.str.9, i32 noundef 738) #7
  tail call void @CRYPTO_free(ptr noundef nonnull %0, ptr noundef nonnull @.str.9, i32 noundef 739) #7
  ret void
}